target datalayout = "e-m:e-p270:32:32-p271:32:32-p272:64:64-i64:64-i128:128-f80:128-n8:16:32:64-S128"
target triple = "x86_64-pc-linux-gnu"

; Function Attrs: nounwind uwtable
define float @stb__perlin_grad(i32 noundef %0, float noundef %1, float noundef %2, float noundef %3) #0 {
  %5 = alloca i32, align 4
  %6 = alloca float, align 4
  %7 = alloca float, align 4
  %8 = alloca float, align 4
  %9 = alloca [12 x [4 x float]], align 16
  %10 = alloca ptr, align 8
  store i32 %0, ptr %5, align 4, !tbaa !7
  store float %1, ptr %6, align 4, !tbaa !3
  store float %2, ptr %7, align 4, !tbaa !3
  store float %3, ptr %8, align 4, !tbaa !3
  call void @llvm.lifetime.start.p0(i64 192, ptr %9) #4
  call void @llvm.memcpy.p0.p0.i64(ptr align 16 %9, ptr align 16 @__const.stb__perlin_grad.basis, i64 192, i1 false)
  call void @llvm.lifetime.start.p0(i64 8, ptr %10) #4
  %11 = load i32, ptr %5, align 4, !tbaa !7
  %12 = sext i32 %11 to i64
  %13 = getelementptr inbounds [12 x [4 x float]], ptr %9, i64 0, i64 %12
  %14 = getelementptr inbounds [4 x float], ptr %13, i64 0, i64 0
  store ptr %14, ptr %10, align 8, !tbaa !9
  %15 = load ptr, ptr %10, align 8, !tbaa !9
  %16 = getelementptr inbounds float, ptr %15, i64 0
  %17 = load float, ptr %16, align 4, !tbaa !3
  %18 = load float, ptr %6, align 4, !tbaa !3
  %19 = load ptr, ptr %10, align 8, !tbaa !9
  %20 = getelementptr inbounds float, ptr %19, i64 1
  %21 = load float, ptr %20, align 4, !tbaa !3
  %22 = load float, ptr %7, align 4, !tbaa !3
  %23 = fmul float %21, %22
  %24 = call float @llvm.fmuladd.f32(float %17, float %18, float %23)
  %25 = load ptr, ptr %10, align 8, !tbaa !9
  %26 = getelementptr inbounds float, ptr %25, i64 2
  %27 = load float, ptr %26, align 4, !tbaa !3
  %28 = load float, ptr %8, align 4, !tbaa !3
  %29 = call float @llvm.fmuladd.f32(float %27, float %28, float %24)
  call void @llvm.lifetime.end.p0(i64 8, ptr %10) #4
  call void @llvm.lifetime.end.p0(i64 192, ptr %9) #4
  ret float %29
}