; Function Attrs: mustprogress nofree norecurse nosync nounwind willreturn memory(none) uwtable
define float @stb__perlin_grad(i32 noundef %0, float noundef %1, float noundef %2, float noundef %3) local_unnamed_addr #0 {
  %5 = sext i32 %0 to i64
  %6 = getelementptr inbounds [12 x [4 x float]], ptr @__const.stb__perlin_grad.basis, i64 0, i64 %5
  %7 = load float, ptr %6, align 16, !tbaa !3
  %8 = getelementptr inbounds nuw i8, ptr %6, i64 4
  %9 = load float, ptr %8, align 4, !tbaa !3
  %10 = fmul float %2, %9
  %11 = tail call float @llvm.fmuladd.f32(float %7, float %1, float %10)
  %12 = getelementptr inbounds nuw i8, ptr %6, i64 8
  %13 = load float, ptr %12, align 8, !tbaa !3
  %14 = tail call float @llvm.fmuladd.f32(float %13, float %3, float %11)
  ret float %14
}